target datalayout = "e-m:e-p270:32:32-p271:32:32-p272:64:64-i64:64-i128:128-f80:128-n8:16:32:64-S128"
target triple = "x86_64-pc-linux-gnu"

%struct.AVFilterContext = type { ptr, ptr, ptr, ptr, ptr, i32, ptr, ptr, i32, ptr, ptr, i32, i32, ptr, ptr, ptr, ptr, i32, ptr, i32, i32 }
%struct.FFTdnoizContext = type { ptr, float, float, i32, float, i32, i32, i32, i32, i32, ptr, ptr, ptr, i32, i32, i32, [4 x %struct.PlaneContext], [256 x [256 x float]], [32 x ptr], [32 x ptr], [32 x ptr], [32 x ptr], ptr, ptr, ptr, ptr, ptr, ptr }
%struct.PlaneContext = type { i32, i32, i32, i32, i32, i32, float, [32 x [3 x ptr]], [32 x ptr], [32 x ptr], [32 x ptr], [32 x ptr], i32, i32 }

; Function Attrs: cold nounwind optsize uwtable
define internal void @uninit(ptr noundef %0) #0 {
  %2 = alloca ptr, align 8
  %3 = alloca ptr, align 8
  %4 = alloca i32, align 4
  %5 = alloca ptr, align 8
  %6 = alloca i32, align 4
  store ptr %0, ptr %2, align 8, !tbaa !4
  call void @llvm.lifetime.start.p0(i64 8, ptr %3) #11
  %7 = load ptr, ptr %2, align 8, !tbaa !4
  %8 = getelementptr inbounds nuw %struct.AVFilterContext, ptr %7, i32 0, i32 9
  %9 = load ptr, ptr %8, align 8, !tbaa !9
  store ptr %9, ptr %3, align 8, !tbaa !22
  call void @llvm.lifetime.start.p0(i64 4, ptr %4) #11
  store i32 0, ptr %4, align 4, !tbaa !24
  br label %10

10:                                               ; preds = %69, %1
  %11 = load i32, ptr %4, align 4, !tbaa !24
  %12 = icmp slt i32 %11, 4
  br i1 %12, label %13, label %72

13:                                               ; preds = %10
  call void @llvm.lifetime.start.p0(i64 8, ptr %5) #11
  %14 = load ptr, ptr %3, align 8, !tbaa !22
  %15 = getelementptr inbounds nuw %struct.FFTdnoizContext, ptr %14, i32 0, i32 16
  %16 = load i32, ptr %4, align 4, !tbaa !24
  %17 = sext i32 %16 to i64
  %18 = getelementptr inbounds [4 x %struct.PlaneContext], ptr %15, i64 0, i64 %17
  store ptr %18, ptr %5, align 8, !tbaa !25
  call void @llvm.lifetime.start.p0(i64 4, ptr %6) #11
  store i32 0, ptr %6, align 4, !tbaa !24
  br label %19

19:                                               ; preds = %65, %13
  %20 = load i32, ptr %6, align 4, !tbaa !24
  %21 = load ptr, ptr %3, align 8, !tbaa !22
  %22 = getelementptr inbounds nuw %struct.FFTdnoizContext, ptr %21, i32 0, i32 15
  %23 = load i32, ptr %22, align 8, !tbaa !27
  %24 = icmp slt i32 %20, %23
  br i1 %24, label %26, label %25

25:                                               ; preds = %19
  call void @llvm.lifetime.end.p0(i64 4, ptr %6) #11
  br label %68

26:                                               ; preds = %19
  %27 = load ptr, ptr %5, align 8, !tbaa !25
  %28 = getelementptr inbounds nuw %struct.PlaneContext, ptr %27, i32 0, i32 8
  %29 = load i32, ptr %6, align 4, !tbaa !24
  %30 = sext i32 %29 to i64
  %31 = getelementptr inbounds [32 x ptr], ptr %28, i64 0, i64 %30
  call void @av_freep(ptr noundef %31)
  %32 = load ptr, ptr %5, align 8, !tbaa !25
  %33 = getelementptr inbounds nuw %struct.PlaneContext, ptr %32, i32 0, i32 9
  %34 = load i32, ptr %6, align 4, !tbaa !24
  %35 = sext i32 %34 to i64
  %36 = getelementptr inbounds [32 x ptr], ptr %33, i64 0, i64 %35
  call void @av_freep(ptr noundef %36)
  %37 = load ptr, ptr %5, align 8, !tbaa !25
  %38 = getelementptr inbounds nuw %struct.PlaneContext, ptr %37, i32 0, i32 10
  %39 = load i32, ptr %6, align 4, !tbaa !24
  %40 = sext i32 %39 to i64
  %41 = getelementptr inbounds [32 x ptr], ptr %38, i64 0, i64 %40
  call void @av_freep(ptr noundef %41)
  %42 = load ptr, ptr %5, align 8, !tbaa !25
  %43 = getelementptr inbounds nuw %struct.PlaneContext, ptr %42, i32 0, i32 11
  %44 = load i32, ptr %6, align 4, !tbaa !24
  %45 = sext i32 %44 to i64
  %46 = getelementptr inbounds [32 x ptr], ptr %43, i64 0, i64 %45
  call void @av_freep(ptr noundef %46)
  %47 = load ptr, ptr %5, align 8, !tbaa !25
  %48 = getelementptr inbounds nuw %struct.PlaneContext, ptr %47, i32 0, i32 7
  %49 = load i32, ptr %6, align 4, !tbaa !24
  %50 = sext i32 %49 to i64
  %51 = getelementptr inbounds [32 x [3 x ptr]], ptr %48, i64 0, i64 %50
  %52 = getelementptr inbounds [3 x ptr], ptr %51, i64 0, i64 1
  call void @av_freep(ptr noundef %52)
  %53 = load ptr, ptr %5, align 8, !tbaa !25
  %54 = getelementptr inbounds nuw %struct.PlaneContext, ptr %53, i32 0, i32 7
  %55 = load i32, ptr %6, align 4, !tbaa !24
  %56 = sext i32 %55 to i64
  %57 = getelementptr inbounds [32 x [3 x ptr]], ptr %54, i64 0, i64 %56
  %58 = getelementptr inbounds [3 x ptr], ptr %57, i64 0, i64 0
  call void @av_freep(ptr noundef %58)
  %59 = load ptr, ptr %5, align 8, !tbaa !25
  %60 = getelementptr inbounds nuw %struct.PlaneContext, ptr %59, i32 0, i32 7
  %61 = load i32, ptr %6, align 4, !tbaa !24
  %62 = sext i32 %61 to i64
  %63 = getelementptr inbounds [32 x [3 x ptr]], ptr %60, i64 0, i64 %62
  %64 = getelementptr inbounds [3 x ptr], ptr %63, i64 0, i64 2
  call void @av_freep(ptr noundef %64)
  br label %65

65:                                               ; preds = %26
  %66 = load i32, ptr %6, align 4, !tbaa !24
  %67 = add nsw i32 %66, 1
  store i32 %67, ptr %6, align 4, !tbaa !24
  br label %19, !llvm.loop !31

68:                                               ; preds = %25
  call void @llvm.lifetime.end.p0(i64 8, ptr %5) #11
  br label %69

69:                                               ; preds = %68
  %70 = load i32, ptr %4, align 4, !tbaa !24
  %71 = add nsw i32 %70, 1
  store i32 %71, ptr %4, align 4, !tbaa !24
  br label %10, !llvm.loop !33

72:                                               ; preds = %10
  store i32 0, ptr %4, align 4, !tbaa !24
  br label %73

73:                                               ; preds = %100, %72
  %74 = load i32, ptr %4, align 4, !tbaa !24
  %75 = load ptr, ptr %3, align 8, !tbaa !22
  %76 = getelementptr inbounds nuw %struct.FFTdnoizContext, ptr %75, i32 0, i32 15
  %77 = load i32, ptr %76, align 8, !tbaa !27
  %78 = icmp slt i32 %74, %77
  br i1 %78, label %79, label %103

79:                                               ; preds = %73
  %80 = load ptr, ptr %3, align 8, !tbaa !22
  %81 = getelementptr inbounds nuw %struct.FFTdnoizContext, ptr %80, i32 0, i32 18
  %82 = load i32, ptr %4, align 4, !tbaa !24
  %83 = sext i32 %82 to i64
  %84 = getelementptr inbounds [32 x ptr], ptr %81, i64 0, i64 %83
  call void @av_tx_uninit(ptr noundef %84)
  %85 = load ptr, ptr %3, align 8, !tbaa !22
  %86 = getelementptr inbounds nuw %struct.FFTdnoizContext, ptr %85, i32 0, i32 19
  %87 = load i32, ptr %4, align 4, !tbaa !24
  %88 = sext i32 %87 to i64
  %89 = getelementptr inbounds [32 x ptr], ptr %86, i64 0, i64 %88
  call void @av_tx_uninit(ptr noundef %89)
  %90 = load ptr, ptr %3, align 8, !tbaa !22
  %91 = getelementptr inbounds nuw %struct.FFTdnoizContext, ptr %90, i32 0, i32 20
  %92 = load i32, ptr %4, align 4, !tbaa !24
  %93 = sext i32 %92 to i64
  %94 = getelementptr inbounds [32 x ptr], ptr %91, i64 0, i64 %93
  call void @av_tx_uninit(ptr noundef %94)
  %95 = load ptr, ptr %3, align 8, !tbaa !22
  %96 = getelementptr inbounds nuw %struct.FFTdnoizContext, ptr %95, i32 0, i32 21
  %97 = load i32, ptr %4, align 4, !tbaa !24
  %98 = sext i32 %97 to i64
  %99 = getelementptr inbounds [32 x ptr], ptr %96, i64 0, i64 %98
  call void @av_tx_uninit(ptr noundef %99)
  br label %100

100:                                              ; preds = %79
  %101 = load i32, ptr %4, align 4, !tbaa !24
  %102 = add nsw i32 %101, 1
  store i32 %102, ptr %4, align 4, !tbaa !24
  br label %73, !llvm.loop !34

103:                                              ; preds = %73
  %104 = load ptr, ptr %3, align 8, !tbaa !22
  %105 = getelementptr inbounds nuw %struct.FFTdnoizContext, ptr %104, i32 0, i32 10
  call void @av_frame_free(ptr noundef %105)
  %106 = load ptr, ptr %3, align 8, !tbaa !22
  %107 = getelementptr inbounds nuw %struct.FFTdnoizContext, ptr %106, i32 0, i32 11
  call void @av_frame_free(ptr noundef %107)
  %108 = load ptr, ptr %3, align 8, !tbaa !22
  %109 = getelementptr inbounds nuw %struct.FFTdnoizContext, ptr %108, i32 0, i32 12
  call void @av_frame_free(ptr noundef %109)
  call void @llvm.lifetime.end.p0(i64 4, ptr %4) #11
  call void @llvm.lifetime.end.p0(i64 8, ptr %3) #11
  ret void
}