; Function Attrs: cold nounwind optsize uwtable
define internal void @uninit(ptr noundef readonly captures(none) %0) #0 {
  %2 = getelementptr inbounds nuw i8, ptr %0, i64 72
  %3 = load ptr, ptr %2, align 8, !tbaa !4
  %4 = getelementptr inbounds nuw i8, ptr %3, i64 88
  %5 = getelementptr inbounds nuw i8, ptr %3, i64 80
  %.pre = load i32, ptr %5, align 8, !tbaa !20
  br label %11

.preheader:                                       ; preds = %._crit_edge
  %6 = icmp sgt i32 %20, 0
  br i1 %6, label %.lr.ph39, label %._crit_edge40

.lr.ph39:                                         ; preds = %.preheader
  %7 = getelementptr inbounds nuw i8, ptr %3, i64 269560
  %8 = getelementptr inbounds nuw i8, ptr %3, i64 269816
  %9 = getelementptr inbounds nuw i8, ptr %3, i64 270072
  %10 = getelementptr inbounds nuw i8, ptr %3, i64 270328
  br label %32

11:                                               ; preds = %1, %._crit_edge
  %12 = phi i32 [ %.pre, %1 ], [ %20, %._crit_edge ]
  %indvars.iv42 = phi i64 [ 0, %1 ], [ %indvars.iv.next43, %._crit_edge ]
  %13 = icmp sgt i32 %12, 0
  br i1 %13, label %.lr.ph, label %._crit_edge

.lr.ph:                                           ; preds = %11
  %14 = getelementptr inbounds nuw [4 x %struct.PlaneContext], ptr %4, i64 0, i64 %indvars.iv42
  %15 = getelementptr inbounds nuw i8, ptr %14, i64 800
  %16 = getelementptr inbounds nuw i8, ptr %14, i64 1056
  %17 = getelementptr inbounds nuw i8, ptr %14, i64 1312
  %18 = getelementptr inbounds nuw i8, ptr %14, i64 1568
  %19 = getelementptr inbounds nuw i8, ptr %14, i64 32
  br label %21

._crit_edge:                                      ; preds = %21, %11
  %20 = phi i32 [ %12, %11 ], [ %29, %21 ]
  %indvars.iv.next43 = add nuw nsw i64 %indvars.iv42, 1
  %exitcond.not = icmp eq i64 %indvars.iv.next43, 4
  br i1 %exitcond.not, label %.preheader, label %11, !llvm.loop !24

21:                                               ; preds = %.lr.ph, %21
  %indvars.iv = phi i64 [ 0, %.lr.ph ], [ %indvars.iv.next, %21 ]
  %22 = getelementptr inbounds nuw [32 x ptr], ptr %15, i64 0, i64 %indvars.iv
  tail call void @av_freep(ptr noundef nonnull %22) #9
  %23 = getelementptr inbounds nuw [32 x ptr], ptr %16, i64 0, i64 %indvars.iv
  tail call void @av_freep(ptr noundef nonnull %23) #9
  %24 = getelementptr inbounds nuw [32 x ptr], ptr %17, i64 0, i64 %indvars.iv
  tail call void @av_freep(ptr noundef nonnull %24) #9
  %25 = getelementptr inbounds nuw [32 x ptr], ptr %18, i64 0, i64 %indvars.iv
  tail call void @av_freep(ptr noundef nonnull %25) #9
  %26 = getelementptr inbounds nuw [32 x [3 x ptr]], ptr %19, i64 0, i64 %indvars.iv
  %27 = getelementptr inbounds nuw i8, ptr %26, i64 8
  tail call void @av_freep(ptr noundef nonnull %27) #9
  tail call void @av_freep(ptr noundef nonnull %26) #9
  %28 = getelementptr inbounds nuw i8, ptr %26, i64 16
  tail call void @av_freep(ptr noundef nonnull %28) #9
  %indvars.iv.next = add nuw nsw i64 %indvars.iv, 1
  %29 = load i32, ptr %5, align 8, !tbaa !20
  %30 = sext i32 %29 to i64
  %31 = icmp slt i64 %indvars.iv.next, %30
  br i1 %31, label %21, label %._crit_edge, !llvm.loop !26

32:                                               ; preds = %.lr.ph39, %32
  %indvars.iv45 = phi i64 [ 0, %.lr.ph39 ], [ %indvars.iv.next46, %32 ]
  %33 = getelementptr inbounds nuw [32 x ptr], ptr %7, i64 0, i64 %indvars.iv45
  tail call void @av_tx_uninit(ptr noundef nonnull %33) #9
  %34 = getelementptr inbounds nuw [32 x ptr], ptr %8, i64 0, i64 %indvars.iv45
  tail call void @av_tx_uninit(ptr noundef nonnull %34) #9
  %35 = getelementptr inbounds nuw [32 x ptr], ptr %9, i64 0, i64 %indvars.iv45
  tail call void @av_tx_uninit(ptr noundef nonnull %35) #9
  %36 = getelementptr inbounds nuw [32 x ptr], ptr %10, i64 0, i64 %indvars.iv45
  tail call void @av_tx_uninit(ptr noundef nonnull %36) #9
  %indvars.iv.next46 = add nuw nsw i64 %indvars.iv45, 1
  %37 = load i32, ptr %5, align 8, !tbaa !20
  %38 = sext i32 %37 to i64
  %39 = icmp slt i64 %indvars.iv.next46, %38
  br i1 %39, label %32, label %._crit_edge40, !llvm.loop !27

._crit_edge40:                                    ; preds = %32, %.preheader
  %40 = getelementptr inbounds nuw i8, ptr %3, i64 48
  tail call void @av_frame_free(ptr noundef nonnull %40) #9
  %41 = getelementptr inbounds nuw i8, ptr %3, i64 56
  tail call void @av_frame_free(ptr noundef nonnull %41) #9
  %42 = getelementptr inbounds nuw i8, ptr %3, i64 64
  tail call void @av_frame_free(ptr noundef nonnull %42) #9
  ret void
}